; Function Attrs: mustprogress uwtable
define void @_ZNK27FilterScreenedPoissonPlugin16pythonFilterNameEi(ptr dead_on_unwind noalias nocapture writable writeonly sret(%class.QString) align 8 %0, ptr nocapture noundef nonnull readnone align 8 dereferenceable(80) %1, i32 noundef %2) unnamed_addr #9 align 2 {
  %4 = icmp eq i32 %2, 0
  br i1 %4, label %5, label %7

5:                                                ; preds = %3
  %6 = tail call noundef ptr @_ZN7QString16fromAscii_helperEPKci(ptr noundef nonnull @.str.16, i32 noundef 48)
  br label %7

7:                                                ; preds = %3, %5
  %storemerge = phi ptr [ %6, %5 ], [ @_ZN10QArrayData11shared_nullE, %3 ]
  store ptr %storemerge, ptr %0, align 8
  ret void
}